target datalayout = "e-m:e-p270:32:32-p271:32:32-p272:64:64-i64:64-i128:128-f80:128-n8:16:32:64-S128"
target triple = "x86_64-pc-linux-gnu"

%struct.Csw_Man_t_ = type { ptr, ptr, ptr, ptr, ptr, ptr, i32, i32, i32, i32, i32, i32, ptr, [4 x ptr], i32, i32, i32, i32, i32, i64, i64, i64, i64 }
%struct.Csw_Cut_t_ = type { ptr, i32, i32, i32, i16, i8, i8, [0 x i32] }
%struct.Aig_Obj_t_ = type { %union.anon, ptr, ptr, i64, i32, i32, %union.anon.0 }
%union.anon = type { ptr }
%union.anon.0 = type { ptr }
%struct.Aig_Man_t_ = type { ptr, ptr, ptr, ptr, ptr, ptr, ptr, %struct.Aig_Obj_t_, i32, i32, i32, i32, i32, i32, [7 x i32], i32, ptr, i32, ptr, i32, ptr, i32, i32, i32, ptr, i32, i32, i32, i32, i32, ptr, ptr, i32, ptr, ptr, i32, ptr, ptr, i32, i32, i32, ptr, ptr, ptr, ptr, ptr, ptr, ptr, ptr, ptr, ptr, ptr, ptr, ptr, ptr, i32, ptr, ptr, ptr, ptr, i32, i64, i64, i64, ptr, ptr }
%struct.Vec_Ptr_t_ = type { i32, i32, ptr }

; Function Attrs: inlinehint nounwind uwtable
define internal ptr @Vec_PtrEntry(ptr noundef %0, i32 noundef %1) #1 {
  %3 = alloca ptr, align 8
  %4 = alloca i32, align 4
  store ptr %0, ptr %3, align 8, !tbaa !80
  store i32 %1, ptr %4, align 4, !tbaa !10
  %5 = load ptr, ptr %3, align 8, !tbaa !80
  %6 = getelementptr inbounds nuw %struct.Vec_Ptr_t_, ptr %5, i32 0, i32 2
  %7 = load ptr, ptr %6, align 8, !tbaa !81
  %8 = load i32, ptr %4, align 4, !tbaa !10
  %9 = sext i32 %8 to i64
  %10 = getelementptr inbounds ptr, ptr %7, i64 %9
  %11 = load ptr, ptr %10, align 8, !tbaa !83
  ret ptr %11
}

; Function Attrs: inlinehint nounwind uwtable
define internal ptr @Aig_NotCond(ptr noundef %0, i32 noundef %1) #1 {
  %3 = alloca ptr, align 8
  %4 = alloca i32, align 4
  store ptr %0, ptr %3, align 8, !tbaa !31
  store i32 %1, ptr %4, align 4, !tbaa !10
  %5 = load ptr, ptr %3, align 8, !tbaa !31
  %6 = ptrtoint ptr %5 to i64
  %7 = load i32, ptr %4, align 4, !tbaa !10
  %8 = sext i32 %7 to i64
  %9 = xor i64 %6, %8
  %10 = inttoptr i64 %9 to ptr
  ret ptr %10
}

; Function Attrs: inlinehint nounwind uwtable
define internal ptr @Aig_Not(ptr noundef %0) #1 {
  %2 = alloca ptr, align 8
  store ptr %0, ptr %2, align 8, !tbaa !31
  %3 = load ptr, ptr %2, align 8, !tbaa !31
  %4 = ptrtoint ptr %3 to i64
  %5 = xor i64 %4, 1
  %6 = inttoptr i64 %5 to ptr
  ret ptr %6
}

; Function Attrs: inlinehint nounwind uwtable
define internal ptr @Csw_CutTruth(ptr noundef %0) #1 {
  %2 = alloca ptr, align 8
  store ptr %0, ptr %2, align 8, !tbaa !8
  %3 = load ptr, ptr %2, align 8, !tbaa !8
  %4 = getelementptr inbounds nuw %struct.Csw_Cut_t_, ptr %3, i32 0, i32 7
  %5 = getelementptr inbounds [0 x i32], ptr %4, i64 0, i64 0
  %6 = load ptr, ptr %2, align 8, !tbaa !8
  %7 = getelementptr inbounds nuw %struct.Csw_Cut_t_, ptr %6, i32 0, i32 5
  %8 = load i8, ptr %7, align 2, !tbaa !26
  %9 = sext i8 %8 to i32
  %10 = sext i32 %9 to i64
  %11 = getelementptr inbounds i32, ptr %5, i64 %10
  ret ptr %11
}

; Function Attrs: inlinehint nounwind uwtable
define internal ptr @Aig_ManObj(ptr noundef %0, i32 noundef %1) #1 {
  %3 = alloca ptr, align 8
  %4 = alloca i32, align 4
  store ptr %0, ptr %3, align 8, !tbaa !49
  store i32 %1, ptr %4, align 4, !tbaa !10
  %5 = load ptr, ptr %3, align 8, !tbaa !49
  %6 = getelementptr inbounds nuw %struct.Aig_Man_t_, ptr %5, i32 0, i32 4
  %7 = load ptr, ptr %6, align 8, !tbaa !50
  %8 = icmp ne ptr %7, null
  br i1 %8, label %9, label %15

9:                                                ; preds = %2
  %10 = load ptr, ptr %3, align 8, !tbaa !49
  %11 = getelementptr inbounds nuw %struct.Aig_Man_t_, ptr %10, i32 0, i32 4
  %12 = load ptr, ptr %11, align 8, !tbaa !50
  %13 = load i32, ptr %4, align 4, !tbaa !10
  %14 = call ptr @Vec_PtrEntry(ptr noundef %12, i32 noundef %13)
  br label %16

15:                                               ; preds = %2
  br label %16

16:                                               ; preds = %15, %9
  %17 = phi ptr [ %14, %9 ], [ null, %15 ]
  ret ptr %17
}

; Function Attrs: nounwind uwtable
define ptr @Csw_ObjTwoVarCut(ptr noundef %0, ptr noundef %1) #0 {
  %3 = alloca ptr, align 8
  %4 = alloca ptr, align 8
  %5 = alloca ptr, align 8
  %6 = alloca ptr, align 8
  %7 = alloca ptr, align 8
  %8 = alloca i32, align 4
  %9 = alloca i32, align 4
  %10 = alloca i32, align 4
  store ptr %0, ptr %3, align 8, !tbaa !3
  store ptr %1, ptr %4, align 8, !tbaa !8
  call void @llvm.lifetime.start.p0(i64 8, ptr %5) #6
  call void @llvm.lifetime.start.p0(i64 8, ptr %6) #6
  call void @llvm.lifetime.start.p0(i64 8, ptr %7) #6
  call void @llvm.lifetime.start.p0(i64 4, ptr %8) #6
  call void @llvm.lifetime.start.p0(i64 4, ptr %9) #6
  call void @llvm.lifetime.start.p0(i64 4, ptr %10) #6
  store i32 0, ptr %10, align 4, !tbaa !10
  %11 = load ptr, ptr %3, align 8, !tbaa !3
  %12 = load ptr, ptr %4, align 8, !tbaa !8
  %13 = call i32 @Csw_CutSupportMinimize(ptr noundef %11, ptr noundef %12)
  store i32 %13, ptr %8, align 4, !tbaa !10
  %14 = load ptr, ptr %3, align 8, !tbaa !3
  %15 = getelementptr inbounds nuw %struct.Csw_Man_t_, ptr %14, i32 0, i32 1
  %16 = load ptr, ptr %15, align 8, !tbaa !48
  %17 = load ptr, ptr %4, align 8, !tbaa !8
  %18 = getelementptr inbounds nuw %struct.Csw_Cut_t_, ptr %17, i32 0, i32 7
  %19 = getelementptr inbounds [0 x i32], ptr %18, i64 0, i64 0
  %20 = load i32, ptr %19, align 8, !tbaa !10
  %21 = call ptr @Aig_ManObj(ptr noundef %16, i32 noundef %20)
  store ptr %21, ptr %6, align 8, !tbaa !31
  %22 = load ptr, ptr %3, align 8, !tbaa !3
  %23 = getelementptr inbounds nuw %struct.Csw_Man_t_, ptr %22, i32 0, i32 1
  %24 = load ptr, ptr %23, align 8, !tbaa !48
  %25 = load ptr, ptr %4, align 8, !tbaa !8
  %26 = getelementptr inbounds nuw %struct.Csw_Cut_t_, ptr %25, i32 0, i32 7
  %27 = getelementptr inbounds [0 x i32], ptr %26, i64 0, i64 1
  %28 = load i32, ptr %27, align 4, !tbaa !10
  %29 = call ptr @Aig_ManObj(ptr noundef %24, i32 noundef %28)
  store ptr %29, ptr %7, align 8, !tbaa !31
  %30 = load ptr, ptr %4, align 8, !tbaa !8
  %31 = call ptr @Csw_CutTruth(ptr noundef %30)
  %32 = load i32, ptr %31, align 4, !tbaa !10
  %33 = and i32 15, %32
  store i32 %33, ptr %9, align 4, !tbaa !10
  %34 = load i32, ptr %9, align 4, !tbaa !10
  %35 = icmp eq i32 %34, 14
  br i1 %35, label %45, label %36

36:                                               ; preds = %2
  %37 = load i32, ptr %9, align 4, !tbaa !10
  %38 = icmp eq i32 %37, 13
  br i1 %38, label %45, label %39

39:                                               ; preds = %36
  %40 = load i32, ptr %9, align 4, !tbaa !10
  %41 = icmp eq i32 %40, 11
  br i1 %41, label %45, label %42

42:                                               ; preds = %39
  %43 = load i32, ptr %9, align 4, !tbaa !10
  %44 = icmp eq i32 %43, 7
  br i1 %44, label %45, label %49

45:                                               ; preds = %42, %39, %36, %2
  %46 = load i32, ptr %9, align 4, !tbaa !10
  %47 = xor i32 %46, -1
  %48 = and i32 15, %47
  store i32 %48, ptr %9, align 4, !tbaa !10
  store i32 1, ptr %10, align 4, !tbaa !10
  br label %49

49:                                               ; preds = %45, %42
  store ptr null, ptr %5, align 8, !tbaa !31
  %50 = load i32, ptr %9, align 4, !tbaa !10
  %51 = icmp eq i32 %50, 1
  br i1 %51, label %52, label %61

52:                                               ; preds = %49
  %53 = load ptr, ptr %3, align 8, !tbaa !3
  %54 = getelementptr inbounds nuw %struct.Csw_Man_t_, ptr %53, i32 0, i32 1
  %55 = load ptr, ptr %54, align 8, !tbaa !48
  %56 = load ptr, ptr %6, align 8, !tbaa !31
  %57 = call ptr @Aig_Not(ptr noundef %56)
  %58 = load ptr, ptr %7, align 8, !tbaa !31
  %59 = call ptr @Aig_Not(ptr noundef %58)
  %60 = call ptr @Aig_And(ptr noundef %55, ptr noundef %57, ptr noundef %59)
  store ptr %60, ptr %5, align 8, !tbaa !31
  br label %61

61:                                               ; preds = %52, %49
  %62 = load i32, ptr %9, align 4, !tbaa !10
  %63 = icmp eq i32 %62, 2
  br i1 %63, label %64, label %72

64:                                               ; preds = %61
  %65 = load ptr, ptr %3, align 8, !tbaa !3
  %66 = getelementptr inbounds nuw %struct.Csw_Man_t_, ptr %65, i32 0, i32 1
  %67 = load ptr, ptr %66, align 8, !tbaa !48
  %68 = load ptr, ptr %6, align 8, !tbaa !31
  %69 = load ptr, ptr %7, align 8, !tbaa !31
  %70 = call ptr @Aig_Not(ptr noundef %69)
  %71 = call ptr @Aig_And(ptr noundef %67, ptr noundef %68, ptr noundef %70)
  store ptr %71, ptr %5, align 8, !tbaa !31
  br label %72

72:                                               ; preds = %64, %61
  %73 = load i32, ptr %9, align 4, !tbaa !10
  %74 = icmp eq i32 %73, 4
  br i1 %74, label %75, label %83

75:                                               ; preds = %72
  %76 = load ptr, ptr %3, align 8, !tbaa !3
  %77 = getelementptr inbounds nuw %struct.Csw_Man_t_, ptr %76, i32 0, i32 1
  %78 = load ptr, ptr %77, align 8, !tbaa !48
  %79 = load ptr, ptr %6, align 8, !tbaa !31
  %80 = call ptr @Aig_Not(ptr noundef %79)
  %81 = load ptr, ptr %7, align 8, !tbaa !31
  %82 = call ptr @Aig_And(ptr noundef %78, ptr noundef %80, ptr noundef %81)
  store ptr %82, ptr %5, align 8, !tbaa !31
  br label %83

83:                                               ; preds = %75, %72
  %84 = load i32, ptr %9, align 4, !tbaa !10
  %85 = icmp eq i32 %84, 8
  br i1 %85, label %86, label %93

86:                                               ; preds = %83
  %87 = load ptr, ptr %3, align 8, !tbaa !3
  %88 = getelementptr inbounds nuw %struct.Csw_Man_t_, ptr %87, i32 0, i32 1
  %89 = load ptr, ptr %88, align 8, !tbaa !48
  %90 = load ptr, ptr %6, align 8, !tbaa !31
  %91 = load ptr, ptr %7, align 8, !tbaa !31
  %92 = call ptr @Aig_And(ptr noundef %89, ptr noundef %90, ptr noundef %91)
  store ptr %92, ptr %5, align 8, !tbaa !31
  br label %93

93:                                               ; preds = %86, %83
  %94 = load ptr, ptr %5, align 8, !tbaa !31
  %95 = icmp ne ptr %94, null
  br i1 %95, label %96, label %100

96:                                               ; preds = %93
  %97 = load ptr, ptr %5, align 8, !tbaa !31
  %98 = load i32, ptr %10, align 4, !tbaa !10
  %99 = call ptr @Aig_NotCond(ptr noundef %97, i32 noundef %98)
  store ptr %99, ptr %5, align 8, !tbaa !31
  br label %100

100:                                              ; preds = %96, %93
  %101 = load ptr, ptr %5, align 8, !tbaa !31
  call void @llvm.lifetime.end.p0(i64 4, ptr %10) #6
  call void @llvm.lifetime.end.p0(i64 4, ptr %9) #6
  call void @llvm.lifetime.end.p0(i64 4, ptr %8) #6
  call void @llvm.lifetime.end.p0(i64 8, ptr %7) #6
  call void @llvm.lifetime.end.p0(i64 8, ptr %6) #6
  call void @llvm.lifetime.end.p0(i64 8, ptr %5) #6
  ret ptr %101
}