; Function Attrs: nounwind uwtable
define ptr @Csw_ObjTwoVarCut(ptr noundef readonly captures(none) %0, ptr noundef %1) local_unnamed_addr #0 {
  %3 = tail call i32 @Csw_CutSupportMinimize(ptr noundef %0, ptr noundef %1)
  %4 = getelementptr inbounds nuw i8, ptr %0, i64 8
  %5 = load ptr, ptr %4, align 8, !tbaa !45
  %6 = getelementptr inbounds nuw i8, ptr %1, i64 24
  %7 = getelementptr i8, ptr %5, i64 32
  %.val = load ptr, ptr %7, align 8, !tbaa !46
  %.not.i = icmp eq ptr %.val, null
  br i1 %.not.i, label %Aig_ManObj.exit42, label %8

8:                                                ; preds = %2
  %9 = load i32, ptr %6, align 8, !tbaa !20
  %10 = getelementptr i8, ptr %.val, i64 8
  %.val.i = load ptr, ptr %10, align 8, !tbaa !53
  %11 = sext i32 %9 to i64
  %12 = getelementptr inbounds ptr, ptr %.val.i, i64 %11
  %13 = load ptr, ptr %12, align 8, !tbaa !55
  %14 = getelementptr inbounds nuw i8, ptr %1, i64 28
  %15 = load i32, ptr %14, align 4, !tbaa !20
  %16 = sext i32 %15 to i64
  %17 = getelementptr inbounds ptr, ptr %.val.i, i64 %16
  %18 = load ptr, ptr %17, align 8, !tbaa !55
  br label %Aig_ManObj.exit42

Aig_ManObj.exit42:                                ; preds = %2, %8
  %19 = phi ptr [ %13, %8 ], [ null, %2 ]
  %20 = phi ptr [ %18, %8 ], [ null, %2 ]
  %21 = getelementptr inbounds nuw i8, ptr %1, i64 22
  %22 = load i8, ptr %21, align 2, !tbaa !8
  %23 = sext i8 %22 to i64
  %24 = getelementptr inbounds i32, ptr %6, i64 %23
  %25 = load i32, ptr %24, align 4, !tbaa !20
  %26 = and i32 %25, 15
  %switch.tableidx = add nsw i32 %26, -7
  %27 = icmp ult i32 %switch.tableidx, 8
  br i1 %27, label %switch.hole_check, label %29

switch.hole_check:                                ; preds = %Aig_ManObj.exit42
  %switch.maskindex = trunc nuw nsw i32 %switch.tableidx to i8
  %switch.shifted = lshr i8 -47, %switch.maskindex
  %switch.lobit = trunc i8 %switch.shifted to i1
  br i1 %switch.lobit, label %switch.lookup, label %29

switch.lookup:                                    ; preds = %switch.hole_check
  %28 = zext nneg i32 %switch.tableidx to i64
  %switch.gep = getelementptr inbounds nuw [8 x i32], ptr @switch.table.Csw_ObjTwoVarCut, i64 0, i64 %28
  %switch.load = load i32, ptr %switch.gep, align 4
  br label %29

29:                                               ; preds = %switch.lookup, %switch.hole_check, %Aig_ManObj.exit42
  %.036 = phi i32 [ %26, %Aig_ManObj.exit42 ], [ %26, %switch.hole_check ], [ %switch.load, %switch.lookup ]
  %.0 = phi i64 [ 0, %Aig_ManObj.exit42 ], [ 0, %switch.hole_check ], [ 1, %switch.lookup ]
  switch i32 %.036, label %.thread49 [
    i32 1, label %.thread
    i32 2, label %37
    i32 4, label %42
    i32 8, label %47
  ]

.thread:                                          ; preds = %29
  %30 = ptrtoint ptr %19 to i64
  %31 = xor i64 %30, 1
  %32 = inttoptr i64 %31 to ptr
  %33 = ptrtoint ptr %20 to i64
  %34 = xor i64 %33, 1
  %35 = inttoptr i64 %34 to ptr
  %36 = tail call ptr @Aig_And(ptr noundef nonnull %5, ptr noundef %32, ptr noundef %35) #9
  br label %.thread47

37:                                               ; preds = %29
  %38 = ptrtoint ptr %20 to i64
  %39 = xor i64 %38, 1
  %40 = inttoptr i64 %39 to ptr
  %41 = tail call ptr @Aig_And(ptr noundef nonnull %5, ptr noundef %19, ptr noundef %40) #9
  br label %.thread47

42:                                               ; preds = %29
  %43 = ptrtoint ptr %19 to i64
  %44 = xor i64 %43, 1
  %45 = inttoptr i64 %44 to ptr
  %46 = tail call ptr @Aig_And(ptr noundef nonnull %5, ptr noundef %45, ptr noundef %20) #9
  br label %.thread47

47:                                               ; preds = %29
  %48 = tail call ptr @Aig_And(ptr noundef nonnull %5, ptr noundef %19, ptr noundef %20) #9
  br label %.thread47

.thread47:                                        ; preds = %37, %.thread, %42, %47
  %.3 = phi ptr [ %48, %47 ], [ %46, %42 ], [ %36, %.thread ], [ %41, %37 ]
  %.not = icmp eq ptr %.3, null
  br i1 %.not, label %.thread49, label %49

49:                                               ; preds = %.thread47
  %50 = ptrtoint ptr %.3 to i64
  %51 = xor i64 %.0, %50
  %52 = inttoptr i64 %51 to ptr
  br label %.thread49

.thread49:                                        ; preds = %29, %49, %.thread47
  %.4 = phi ptr [ %52, %49 ], [ null, %.thread47 ], [ null, %29 ]
  ret ptr %.4
}